; Function Attrs: mustprogress nounwind uwtable
define void @_ZN6icu_7510DateFormatD2Ev(ptr noundef nonnull align 8 dereferenceable(352) %this) unnamed_addr #0 align 2 {
entry:
  store ptr getelementptr inbounds ({ [31 x ptr] }, ptr @_ZTVN6icu_7510DateFormatE, i64 0, i32 0, i64 2), ptr %this, align 8
  %fCalendar = getelementptr inbounds i8, ptr %this, i64 328
  %0 = load ptr, ptr %fCalendar, align 8
  %isnull = icmp eq ptr %0, null
  br i1 %isnull, label %delete.end, label %delete.notnull

delete.notnull:                                   ; preds = %entry
  %vtable = load ptr, ptr %0, align 8
  %vfn = getelementptr inbounds i8, ptr %vtable, i64 8
  %1 = load ptr, ptr %vfn, align 8
  tail call void %1(ptr noundef nonnull align 8 dereferenceable(618) %0) #13
  br label %delete.end

delete.end:                                       ; preds = %delete.notnull, %entry
  %fNumberFormat = getelementptr inbounds i8, ptr %this, i64 336
  %2 = load ptr, ptr %fNumberFormat, align 8
  %isnull2 = icmp eq ptr %2, null
  br i1 %isnull2, label %delete.end6, label %delete.notnull3

delete.notnull3:                                  ; preds = %delete.end
  %vtable4 = load ptr, ptr %2, align 8
  %vfn5 = getelementptr inbounds i8, ptr %vtable4, i64 8
  %3 = load ptr, ptr %vfn5, align 8
  tail call void %3(ptr noundef nonnull align 8 dereferenceable(356) %2) #13
  br label %delete.end6

delete.end6:                                      ; preds = %delete.notnull3, %delete.end
  tail call void @_ZN6icu_756FormatD2Ev(ptr noundef nonnull align 8 dereferenceable(322) %this) #13
  ret void
}